; Function Attrs: nofree nounwind uwtable
define noundef i32 @php_get_uid_by_name(ptr nocapture noundef readonly %0, ptr nocapture noundef writeonly %1) local_unnamed_addr #4 {
  %3 = tail call ptr @getpwnam(ptr noundef %0)
  %.not = icmp eq ptr %3, null
  br i1 %.not, label %7, label %4

4:                                                ; preds = %2
  %5 = getelementptr inbounds i8, ptr %3, i64 16
  %6 = load i32, ptr %5, align 8
  store i32 %6, ptr %1, align 4
  br label %7

7:                                                ; preds = %2, %4
  %.0 = phi i32 [ 0, %4 ], [ -1, %2 ]
  ret i32 %.0
}